target datalayout = "e-m:e-p270:32:32-p271:32:32-p272:64:64-i64:64-i128:128-f80:128-n8:16:32:64-S128"
target triple = "x86_64-pc-linux-gnu"

%struct.Rwr_Man_t_ = type { i32, ptr, ptr, ptr, ptr, ptr, ptr, ptr, ptr, ptr, ptr, ptr, i32, i32, i32, i32, i32, ptr, ptr, ptr, ptr, ptr, i32, i32, i32, i32, i32, [222 x i32], i32, i32, i32, i64, i64, i64, i64, i64, i64, i64 }
%struct.Dec_Man_t_ = type { ptr, ptr, ptr, ptr, ptr, ptr, ptr }
%struct.Vec_Ptr_t_ = type { i32, i32, ptr }
%struct.Vec_Int_t_ = type { i32, i32, ptr }
%struct.timespec = type { i64, i64 }

; Function Attrs: inlinehint nounwind uwtable
define internal ptr @Vec_IntAlloc(i32 noundef %0) #5 {
  %2 = alloca i32, align 4
  %3 = alloca ptr, align 8
  store i32 %0, ptr %2, align 4, !tbaa !3
  call void @llvm.lifetime.start.p0(i64 8, ptr %3) #9
  %4 = call noalias ptr @malloc(i64 noundef 16) #10
  store ptr %4, ptr %3, align 8, !tbaa !50
  %5 = load i32, ptr %2, align 4, !tbaa !3
  %6 = icmp sgt i32 %5, 0
  br i1 %6, label %7, label %11

7:                                                ; preds = %1
  %8 = load i32, ptr %2, align 4, !tbaa !3
  %9 = icmp slt i32 %8, 16
  br i1 %9, label %10, label %11

10:                                               ; preds = %7
  store i32 16, ptr %2, align 4, !tbaa !3
  br label %11

11:                                               ; preds = %10, %7, %1
  %12 = load ptr, ptr %3, align 8, !tbaa !50
  %13 = getelementptr inbounds nuw %struct.Vec_Int_t_, ptr %12, i32 0, i32 1
  store i32 0, ptr %13, align 4, !tbaa !51
  %14 = load i32, ptr %2, align 4, !tbaa !3
  %15 = load ptr, ptr %3, align 8, !tbaa !50
  %16 = getelementptr inbounds nuw %struct.Vec_Int_t_, ptr %15, i32 0, i32 0
  store i32 %14, ptr %16, align 8, !tbaa !54
  %17 = load ptr, ptr %3, align 8, !tbaa !50
  %18 = getelementptr inbounds nuw %struct.Vec_Int_t_, ptr %17, i32 0, i32 0
  %19 = load i32, ptr %18, align 8, !tbaa !54
  %20 = icmp ne i32 %19, 0
  br i1 %20, label %21, label %28

21:                                               ; preds = %11
  %22 = load ptr, ptr %3, align 8, !tbaa !50
  %23 = getelementptr inbounds nuw %struct.Vec_Int_t_, ptr %22, i32 0, i32 0
  %24 = load i32, ptr %23, align 8, !tbaa !54
  %25 = sext i32 %24 to i64
  %26 = mul i64 4, %25
  %27 = call noalias ptr @malloc(i64 noundef %26) #10
  br label %29

28:                                               ; preds = %11
  br label %29

29:                                               ; preds = %28, %21
  %30 = phi ptr [ %27, %21 ], [ null, %28 ]
  %31 = load ptr, ptr %3, align 8, !tbaa !50
  %32 = getelementptr inbounds nuw %struct.Vec_Int_t_, ptr %31, i32 0, i32 2
  store ptr %30, ptr %32, align 8, !tbaa !55
  %33 = load ptr, ptr %3, align 8, !tbaa !50
  call void @llvm.lifetime.end.p0(i64 8, ptr %3) #9
  ret ptr %33
}

; Function Attrs: inlinehint nounwind uwtable
define internal ptr @Vec_PtrAlloc(i32 noundef %0) #5 {
  %2 = alloca i32, align 4
  %3 = alloca ptr, align 8
  store i32 %0, ptr %2, align 4, !tbaa !3
  call void @llvm.lifetime.start.p0(i64 8, ptr %3) #9
  %4 = call noalias ptr @malloc(i64 noundef 16) #10
  store ptr %4, ptr %3, align 8, !tbaa !45
  %5 = load i32, ptr %2, align 4, !tbaa !3
  %6 = icmp sgt i32 %5, 0
  br i1 %6, label %7, label %11

7:                                                ; preds = %1
  %8 = load i32, ptr %2, align 4, !tbaa !3
  %9 = icmp slt i32 %8, 8
  br i1 %9, label %10, label %11

10:                                               ; preds = %7
  store i32 8, ptr %2, align 4, !tbaa !3
  br label %11

11:                                               ; preds = %10, %7, %1
  %12 = load ptr, ptr %3, align 8, !tbaa !45
  %13 = getelementptr inbounds nuw %struct.Vec_Ptr_t_, ptr %12, i32 0, i32 1
  store i32 0, ptr %13, align 4, !tbaa !46
  %14 = load i32, ptr %2, align 4, !tbaa !3
  %15 = load ptr, ptr %3, align 8, !tbaa !45
  %16 = getelementptr inbounds nuw %struct.Vec_Ptr_t_, ptr %15, i32 0, i32 0
  store i32 %14, ptr %16, align 8, !tbaa !48
  %17 = load ptr, ptr %3, align 8, !tbaa !45
  %18 = getelementptr inbounds nuw %struct.Vec_Ptr_t_, ptr %17, i32 0, i32 0
  %19 = load i32, ptr %18, align 8, !tbaa !48
  %20 = icmp ne i32 %19, 0
  br i1 %20, label %21, label %28

21:                                               ; preds = %11
  %22 = load ptr, ptr %3, align 8, !tbaa !45
  %23 = getelementptr inbounds nuw %struct.Vec_Ptr_t_, ptr %22, i32 0, i32 0
  %24 = load i32, ptr %23, align 8, !tbaa !48
  %25 = sext i32 %24 to i64
  %26 = mul i64 8, %25
  %27 = call noalias ptr @malloc(i64 noundef %26) #10
  br label %29

28:                                               ; preds = %11
  br label %29

29:                                               ; preds = %28, %21
  %30 = phi ptr [ %27, %21 ], [ null, %28 ]
  %31 = load ptr, ptr %3, align 8, !tbaa !45
  %32 = getelementptr inbounds nuw %struct.Vec_Ptr_t_, ptr %31, i32 0, i32 2
  store ptr %30, ptr %32, align 8, !tbaa !49
  %33 = load ptr, ptr %3, align 8, !tbaa !45
  call void @llvm.lifetime.end.p0(i64 8, ptr %3) #9
  ret ptr %33
}

; Function Attrs: inlinehint nounwind uwtable
define internal i64 @Abc_Clock() #5 {
  %1 = alloca i64, align 8
  %2 = alloca %struct.timespec, align 8
  %3 = alloca i32, align 4
  %4 = alloca i64, align 8
  call void @llvm.lifetime.start.p0(i64 16, ptr %2) #9
  %5 = call i32 @clock_gettime(i32 noundef 1, ptr noundef %2) #9
  %6 = icmp slt i32 %5, 0
  br i1 %6, label %7, label %8

7:                                                ; preds = %0
  store i64 -1, ptr %1, align 8
  store i32 1, ptr %3, align 4
  br label %19

8:                                                ; preds = %0
  call void @llvm.lifetime.start.p0(i64 8, ptr %4) #9
  %9 = getelementptr inbounds nuw %struct.timespec, ptr %2, i32 0, i32 0
  %10 = load i64, ptr %9, align 8, !tbaa !98
  %11 = mul nsw i64 %10, 1000000
  store i64 %11, ptr %4, align 8, !tbaa !7
  %12 = getelementptr inbounds nuw %struct.timespec, ptr %2, i32 0, i32 1
  %13 = load i64, ptr %12, align 8, !tbaa !100
  %14 = mul nsw i64 %13, 1000000
  %15 = sdiv i64 %14, 1000000000
  %16 = load i64, ptr %4, align 8, !tbaa !7
  %17 = add nsw i64 %16, %15
  store i64 %17, ptr %4, align 8, !tbaa !7
  %18 = load i64, ptr %4, align 8, !tbaa !7
  store i64 %18, ptr %1, align 8
  store i32 1, ptr %3, align 4
  call void @llvm.lifetime.end.p0(i64 8, ptr %4) #9
  br label %19

19:                                               ; preds = %8, %7
  call void @llvm.lifetime.end.p0(i64 16, ptr %2) #9
  %20 = load i64, ptr %1, align 8
  ret i64 %20
}

; Function Attrs: nounwind uwtable
define ptr @Rwr_ManStart(i32 noundef %0) #0 {
  %2 = alloca i32, align 4
  %3 = alloca ptr, align 8
  %4 = alloca ptr, align 8
  %5 = alloca i64, align 8
  store i32 %0, ptr %2, align 4, !tbaa !3
  call void @llvm.lifetime.start.p0(i64 8, ptr %3) #9
  call void @llvm.lifetime.start.p0(i64 8, ptr %4) #9
  call void @llvm.lifetime.start.p0(i64 8, ptr %5) #9
  %6 = call i64 @Abc_Clock()
  store i64 %6, ptr %5, align 8, !tbaa !7
  %7 = call i64 @Abc_Clock()
  store i64 %7, ptr %5, align 8, !tbaa !7
  %8 = call noalias ptr @malloc(i64 noundef 1136) #10
  store ptr %8, ptr %4, align 8, !tbaa !9
  %9 = load ptr, ptr %4, align 8, !tbaa !9
  call void @llvm.memset.p0.i64(ptr align 8 %9, i8 0, i64 1136, i1 false)
  %10 = load ptr, ptr %4, align 8, !tbaa !9
  %11 = getelementptr inbounds nuw %struct.Rwr_Man_t_, ptr %10, i32 0, i32 0
  store i32 65536, ptr %11, align 8, !tbaa !12
  %12 = call ptr (...) @Abc_FrameReadManDec()
  store ptr %12, ptr %3, align 8, !tbaa !22
  %13 = load ptr, ptr %3, align 8, !tbaa !22
  %14 = getelementptr inbounds nuw %struct.Dec_Man_t_, ptr %13, i32 0, i32 3
  %15 = load ptr, ptr %14, align 8, !tbaa !24
  %16 = load ptr, ptr %4, align 8, !tbaa !9
  %17 = getelementptr inbounds nuw %struct.Rwr_Man_t_, ptr %16, i32 0, i32 1
  store ptr %15, ptr %17, align 8, !tbaa !26
  %18 = load ptr, ptr %3, align 8, !tbaa !22
  %19 = getelementptr inbounds nuw %struct.Dec_Man_t_, ptr %18, i32 0, i32 4
  %20 = load ptr, ptr %19, align 8, !tbaa !27
  %21 = load ptr, ptr %4, align 8, !tbaa !9
  %22 = getelementptr inbounds nuw %struct.Rwr_Man_t_, ptr %21, i32 0, i32 2
  store ptr %20, ptr %22, align 8, !tbaa !28
  %23 = load ptr, ptr %3, align 8, !tbaa !22
  %24 = getelementptr inbounds nuw %struct.Dec_Man_t_, ptr %23, i32 0, i32 5
  %25 = load ptr, ptr %24, align 8, !tbaa !29
  %26 = load ptr, ptr %4, align 8, !tbaa !9
  %27 = getelementptr inbounds nuw %struct.Rwr_Man_t_, ptr %26, i32 0, i32 3
  store ptr %25, ptr %27, align 8, !tbaa !30
  %28 = load ptr, ptr %3, align 8, !tbaa !22
  %29 = getelementptr inbounds nuw %struct.Dec_Man_t_, ptr %28, i32 0, i32 6
  %30 = load ptr, ptr %29, align 8, !tbaa !31
  %31 = load ptr, ptr %4, align 8, !tbaa !9
  %32 = getelementptr inbounds nuw %struct.Rwr_Man_t_, ptr %31, i32 0, i32 4
  store ptr %30, ptr %32, align 8, !tbaa !32
  %33 = load ptr, ptr %4, align 8, !tbaa !9
  %34 = call ptr @Rwr_ManGetPractical(ptr noundef %33)
  %35 = load ptr, ptr %4, align 8, !tbaa !9
  %36 = getelementptr inbounds nuw %struct.Rwr_Man_t_, ptr %35, i32 0, i32 6
  store ptr %34, ptr %36, align 8, !tbaa !33
  %37 = load ptr, ptr %4, align 8, !tbaa !9
  %38 = getelementptr inbounds nuw %struct.Rwr_Man_t_, ptr %37, i32 0, i32 0
  %39 = load i32, ptr %38, align 8, !tbaa !12
  %40 = sext i32 %39 to i64
  %41 = mul i64 8, %40
  %42 = call noalias ptr @malloc(i64 noundef %41) #10
  %43 = load ptr, ptr %4, align 8, !tbaa !9
  %44 = getelementptr inbounds nuw %struct.Rwr_Man_t_, ptr %43, i32 0, i32 9
  store ptr %42, ptr %44, align 8, !tbaa !34
  %45 = load ptr, ptr %4, align 8, !tbaa !9
  %46 = getelementptr inbounds nuw %struct.Rwr_Man_t_, ptr %45, i32 0, i32 9
  %47 = load ptr, ptr %46, align 8, !tbaa !34
  %48 = load ptr, ptr %4, align 8, !tbaa !9
  %49 = getelementptr inbounds nuw %struct.Rwr_Man_t_, ptr %48, i32 0, i32 0
  %50 = load i32, ptr %49, align 8, !tbaa !12
  %51 = sext i32 %50 to i64
  %52 = mul i64 8, %51
  call void @llvm.memset.p0.i64(ptr align 8 %47, i8 0, i64 %52, i1 false)
  %53 = call ptr @Extra_MmFixedStart(i32 noundef 48)
  %54 = load ptr, ptr %4, align 8, !tbaa !9
  %55 = getelementptr inbounds nuw %struct.Rwr_Man_t_, ptr %54, i32 0, i32 11
  store ptr %53, ptr %55, align 8, !tbaa !35
  %56 = call ptr @Vec_PtrAlloc(i32 noundef 100)
  %57 = load ptr, ptr %4, align 8, !tbaa !9
  %58 = getelementptr inbounds nuw %struct.Rwr_Man_t_, ptr %57, i32 0, i32 8
  store ptr %56, ptr %58, align 8, !tbaa !36
  %59 = load ptr, ptr %4, align 8, !tbaa !9
  %60 = load i32, ptr %2, align 4, !tbaa !3
  %61 = call ptr @Rwr_ManAddVar(ptr noundef %59, i32 noundef 0, i32 noundef %60)
  %62 = load ptr, ptr %4, align 8, !tbaa !9
  %63 = load i32, ptr %2, align 4, !tbaa !3
  %64 = call ptr @Rwr_ManAddVar(ptr noundef %62, i32 noundef 43690, i32 noundef %63)
  %65 = load ptr, ptr %4, align 8, !tbaa !9
  %66 = load i32, ptr %2, align 4, !tbaa !3
  %67 = call ptr @Rwr_ManAddVar(ptr noundef %65, i32 noundef 52428, i32 noundef %66)
  %68 = load ptr, ptr %4, align 8, !tbaa !9
  %69 = load i32, ptr %2, align 4, !tbaa !3
  %70 = call ptr @Rwr_ManAddVar(ptr noundef %68, i32 noundef 61680, i32 noundef %69)
  %71 = load ptr, ptr %4, align 8, !tbaa !9
  %72 = load i32, ptr %2, align 4, !tbaa !3
  %73 = call ptr @Rwr_ManAddVar(ptr noundef %71, i32 noundef 65280, i32 noundef %72)
  %74 = load ptr, ptr %4, align 8, !tbaa !9
  %75 = getelementptr inbounds nuw %struct.Rwr_Man_t_, ptr %74, i32 0, i32 15
  store i32 5, ptr %75, align 4, !tbaa !37
  %76 = load ptr, ptr %4, align 8, !tbaa !9
  %77 = getelementptr inbounds nuw %struct.Rwr_Man_t_, ptr %76, i32 0, i32 12
  store i32 1, ptr %77, align 8, !tbaa !38
  %78 = call ptr @Extra_Permutations(i32 noundef 4)
  %79 = load ptr, ptr %4, align 8, !tbaa !9
  %80 = getelementptr inbounds nuw %struct.Rwr_Man_t_, ptr %79, i32 0, i32 7
  store ptr %78, ptr %80, align 8, !tbaa !39
  %81 = call ptr @Vec_IntAlloc(i32 noundef 50)
  %82 = load ptr, ptr %4, align 8, !tbaa !9
  %83 = getelementptr inbounds nuw %struct.Rwr_Man_t_, ptr %82, i32 0, i32 20
  store ptr %81, ptr %83, align 8, !tbaa !40
  %84 = call ptr @Vec_PtrAlloc(i32 noundef 50)
  %85 = load ptr, ptr %4, align 8, !tbaa !9
  %86 = getelementptr inbounds nuw %struct.Rwr_Man_t_, ptr %85, i32 0, i32 18
  store ptr %84, ptr %86, align 8, !tbaa !41
  %87 = call ptr @Vec_PtrAlloc(i32 noundef 50)
  %88 = load ptr, ptr %4, align 8, !tbaa !9
  %89 = getelementptr inbounds nuw %struct.Rwr_Man_t_, ptr %88, i32 0, i32 19
  store ptr %87, ptr %89, align 8, !tbaa !42
  %90 = call ptr @Vec_PtrAlloc(i32 noundef 50)
  %91 = load ptr, ptr %4, align 8, !tbaa !9
  %92 = getelementptr inbounds nuw %struct.Rwr_Man_t_, ptr %91, i32 0, i32 21
  store ptr %90, ptr %92, align 8, !tbaa !43
  %93 = load i32, ptr %2, align 4, !tbaa !3
  %94 = icmp ne i32 %93, 0
  br i1 %94, label %95, label %98

95:                                               ; preds = %1
  %96 = load ptr, ptr %4, align 8, !tbaa !9
  call void @Rwr_ManPrecompute(ptr noundef %96)
  %97 = load ptr, ptr %4, align 8, !tbaa !9
  call void @Rwr_ManWriteToArray(ptr noundef %97)
  br label %101

98:                                               ; preds = %1
  %99 = load ptr, ptr %4, align 8, !tbaa !9
  call void @Rwr_ManLoadFromArray(ptr noundef %99, i32 noundef 0)
  %100 = load ptr, ptr %4, align 8, !tbaa !9
  call void @Rwr_ManPreprocess(ptr noundef %100)
  br label %101

101:                                              ; preds = %98, %95
  %102 = call i64 @Abc_Clock()
  %103 = load i64, ptr %5, align 8, !tbaa !7
  %104 = sub nsw i64 %102, %103
  %105 = load ptr, ptr %4, align 8, !tbaa !9
  %106 = getelementptr inbounds nuw %struct.Rwr_Man_t_, ptr %105, i32 0, i32 31
  store i64 %104, ptr %106, align 8, !tbaa !44
  %107 = load ptr, ptr %4, align 8, !tbaa !9
  call void @llvm.lifetime.end.p0(i64 8, ptr %5) #9
  call void @llvm.lifetime.end.p0(i64 8, ptr %4) #9
  call void @llvm.lifetime.end.p0(i64 8, ptr %3) #9
  ret ptr %107
}