; Function Attrs: nounwind uwtable
define noundef ptr @Rwr_ManStart(i32 noundef %0) local_unnamed_addr #0 {
Abc_Clock.exit:
  %1 = alloca %struct.timespec, align 8
  %2 = alloca %struct.timespec, align 8
  %3 = alloca %struct.timespec, align 8
  call void @llvm.lifetime.start.p0(i64 16, ptr nonnull %3) #15
  %4 = call i32 @clock_gettime(i32 noundef 1, ptr noundef nonnull %3) #15
  call void @llvm.lifetime.end.p0(i64 16, ptr nonnull %3) #15
  call void @llvm.lifetime.start.p0(i64 16, ptr nonnull %2) #15
  %5 = call i32 @clock_gettime(i32 noundef 1, ptr noundef nonnull %2) #15
  %6 = icmp slt i32 %5, 0
  br i1 %6, label %Abc_Clock.exit43, label %7

7:                                                ; preds = %Abc_Clock.exit
  %8 = load i64, ptr %2, align 8, !tbaa !3
  %.neg46 = mul i64 %8, -1000000
  %9 = getelementptr inbounds nuw i8, ptr %2, i64 8
  %10 = load i64, ptr %9, align 8, !tbaa !8
  %.neg = sdiv i64 %10, -1000
  %.neg47 = add i64 %.neg, %.neg46
  br label %Abc_Clock.exit43

Abc_Clock.exit43:                                 ; preds = %Abc_Clock.exit, %7
  %.0.i42.neg = phi i64 [ %.neg47, %7 ], [ 1, %Abc_Clock.exit ]
  call void @llvm.lifetime.end.p0(i64 16, ptr nonnull %2) #15
  %calloc = call dereferenceable_or_null(1136) ptr @calloc(i64 1, i64 1136)
  store i32 65536, ptr %calloc, align 8, !tbaa !9
  %11 = call ptr (...) @Abc_FrameReadManDec() #15
  %12 = getelementptr inbounds nuw i8, ptr %11, i64 24
  %13 = load ptr, ptr %12, align 8, !tbaa !21
  %14 = getelementptr inbounds nuw i8, ptr %calloc, i64 8
  store ptr %13, ptr %14, align 8, !tbaa !23
  %15 = getelementptr inbounds nuw i8, ptr %11, i64 32
  %16 = load ptr, ptr %15, align 8, !tbaa !24
  %17 = getelementptr inbounds nuw i8, ptr %calloc, i64 16
  store ptr %16, ptr %17, align 8, !tbaa !25
  %18 = getelementptr inbounds nuw i8, ptr %11, i64 40
  %19 = load ptr, ptr %18, align 8, !tbaa !26
  %20 = getelementptr inbounds nuw i8, ptr %calloc, i64 24
  store ptr %19, ptr %20, align 8, !tbaa !27
  %21 = getelementptr inbounds nuw i8, ptr %11, i64 48
  %22 = load ptr, ptr %21, align 8, !tbaa !28
  %23 = getelementptr inbounds nuw i8, ptr %calloc, i64 32
  store ptr %22, ptr %23, align 8, !tbaa !29
  %24 = call ptr @Rwr_ManGetPractical(ptr noundef nonnull %calloc) #15
  %25 = getelementptr inbounds nuw i8, ptr %calloc, i64 48
  store ptr %24, ptr %25, align 8, !tbaa !30
  %26 = load i32, ptr %calloc, align 8, !tbaa !9
  %27 = sext i32 %26 to i64
  %28 = shl nsw i64 %27, 3
  %calloc48 = call ptr @calloc(i64 1, i64 %28)
  %29 = getelementptr inbounds nuw i8, ptr %calloc, i64 72
  store ptr %calloc48, ptr %29, align 8, !tbaa !31
  %30 = call ptr @Extra_MmFixedStart(i32 noundef 48) #15
  %31 = getelementptr inbounds nuw i8, ptr %calloc, i64 88
  store ptr %30, ptr %31, align 8, !tbaa !32
  %32 = call noalias dereferenceable_or_null(16) ptr @malloc(i64 noundef 16) #16
  %33 = getelementptr inbounds nuw i8, ptr %32, i64 4
  store i32 0, ptr %33, align 4, !tbaa !33
  store i32 100, ptr %32, align 8, !tbaa !35
  %34 = call noalias dereferenceable_or_null(800) ptr @malloc(i64 noundef 800) #16
  %35 = getelementptr inbounds nuw i8, ptr %32, i64 8
  store ptr %34, ptr %35, align 8, !tbaa !36
  %36 = getelementptr inbounds nuw i8, ptr %calloc, i64 64
  store ptr %32, ptr %36, align 8, !tbaa !37
  %37 = call ptr @Rwr_ManAddVar(ptr noundef nonnull %calloc, i32 noundef 0, i32 noundef %0) #15
  %38 = call ptr @Rwr_ManAddVar(ptr noundef nonnull %calloc, i32 noundef 43690, i32 noundef %0) #15
  %39 = call ptr @Rwr_ManAddVar(ptr noundef nonnull %calloc, i32 noundef 52428, i32 noundef %0) #15
  %40 = call ptr @Rwr_ManAddVar(ptr noundef nonnull %calloc, i32 noundef 61680, i32 noundef %0) #15
  %41 = call ptr @Rwr_ManAddVar(ptr noundef nonnull %calloc, i32 noundef 65280, i32 noundef %0) #15
  %42 = getelementptr inbounds nuw i8, ptr %calloc, i64 108
  store i32 5, ptr %42, align 4, !tbaa !38
  %43 = getelementptr inbounds nuw i8, ptr %calloc, i64 96
  store i32 1, ptr %43, align 8, !tbaa !39
  %44 = call ptr @Extra_Permutations(i32 noundef 4) #15
  %45 = getelementptr inbounds nuw i8, ptr %calloc, i64 56
  store ptr %44, ptr %45, align 8, !tbaa !40
  %46 = call noalias dereferenceable_or_null(16) ptr @malloc(i64 noundef 16) #16
  %47 = getelementptr inbounds nuw i8, ptr %46, i64 4
  store i32 0, ptr %47, align 4, !tbaa !41
  store i32 50, ptr %46, align 8, !tbaa !44
  %48 = call noalias dereferenceable_or_null(200) ptr @malloc(i64 noundef 200) #16
  %49 = getelementptr inbounds nuw i8, ptr %46, i64 8
  store ptr %48, ptr %49, align 8, !tbaa !45
  %50 = getelementptr inbounds nuw i8, ptr %calloc, i64 144
  store ptr %46, ptr %50, align 8, !tbaa !46
  %51 = call noalias dereferenceable_or_null(16) ptr @malloc(i64 noundef 16) #16
  %52 = getelementptr inbounds nuw i8, ptr %51, i64 4
  store i32 0, ptr %52, align 4, !tbaa !33
  store i32 50, ptr %51, align 8, !tbaa !35
  %53 = call noalias dereferenceable_or_null(400) ptr @malloc(i64 noundef 400) #16
  %54 = getelementptr inbounds nuw i8, ptr %51, i64 8
  store ptr %53, ptr %54, align 8, !tbaa !36
  %55 = getelementptr inbounds nuw i8, ptr %calloc, i64 128
  store ptr %51, ptr %55, align 8, !tbaa !47
  %56 = call noalias dereferenceable_or_null(16) ptr @malloc(i64 noundef 16) #16
  %57 = getelementptr inbounds nuw i8, ptr %56, i64 4
  store i32 0, ptr %57, align 4, !tbaa !33
  store i32 50, ptr %56, align 8, !tbaa !35
  %58 = call noalias dereferenceable_or_null(400) ptr @malloc(i64 noundef 400) #16
  %59 = getelementptr inbounds nuw i8, ptr %56, i64 8
  store ptr %58, ptr %59, align 8, !tbaa !36
  %60 = getelementptr inbounds nuw i8, ptr %calloc, i64 136
  store ptr %56, ptr %60, align 8, !tbaa !48
  %61 = call noalias dereferenceable_or_null(16) ptr @malloc(i64 noundef 16) #16
  %62 = getelementptr inbounds nuw i8, ptr %61, i64 4
  store i32 0, ptr %62, align 4, !tbaa !33
  store i32 50, ptr %61, align 8, !tbaa !35
  %63 = call noalias dereferenceable_or_null(400) ptr @malloc(i64 noundef 400) #16
  %64 = getelementptr inbounds nuw i8, ptr %61, i64 8
  store ptr %63, ptr %64, align 8, !tbaa !36
  %65 = getelementptr inbounds nuw i8, ptr %calloc, i64 152
  store ptr %61, ptr %65, align 8, !tbaa !49
  %.not = icmp eq i32 %0, 0
  br i1 %.not, label %67, label %66

66:                                               ; preds = %Abc_Clock.exit43
  call void @Rwr_ManPrecompute(ptr noundef nonnull %calloc) #15
  call void @Rwr_ManWriteToArray(ptr noundef nonnull %calloc) #15
  br label %68

67:                                               ; preds = %Abc_Clock.exit43
  call void @Rwr_ManLoadFromArray(ptr noundef nonnull %calloc, i32 noundef 0) #15
  call void @Rwr_ManPreprocess(ptr noundef nonnull %calloc) #15
  br label %68

68:                                               ; preds = %67, %66
  call void @llvm.lifetime.start.p0(i64 16, ptr nonnull %1) #15
  %69 = call i32 @clock_gettime(i32 noundef 1, ptr noundef nonnull %1) #15
  %70 = icmp slt i32 %69, 0
  br i1 %70, label %Abc_Clock.exit45, label %71

71:                                               ; preds = %68
  %72 = load i64, ptr %1, align 8, !tbaa !3
  %73 = mul nsw i64 %72, 1000000
  %74 = getelementptr inbounds nuw i8, ptr %1, i64 8
  %75 = load i64, ptr %74, align 8, !tbaa !8
  %76 = sdiv i64 %75, 1000
  %77 = add nsw i64 %76, %73
  br label %Abc_Clock.exit45

Abc_Clock.exit45:                                 ; preds = %68, %71
  %.0.i44 = phi i64 [ %77, %71 ], [ -1, %68 ]
  call void @llvm.lifetime.end.p0(i64 16, ptr nonnull %1) #15
  %78 = add i64 %.0.i44, %.0.i42.neg
  %79 = getelementptr inbounds nuw i8, ptr %calloc, i64 1080
  store i64 %78, ptr %79, align 8, !tbaa !50
  ret ptr %calloc
}